target datalayout = "e-m:e-p270:32:32-p271:32:32-p272:64:64-i64:64-i128:128-f80:128-n8:16:32:64-S128"
target triple = "x86_64-unknown-linux-gnu"

%"struct.std::_Rb_tree_const_iterator" = type { ptr }
%"class.openvdb::v11_0::points::AttributeSet::Descriptor" = type { %"class.std::map", %"class.std::vector.3", %"class.std::map", %"class.openvdb::v11_0::MetaMap", %"class.openvdb::v11_0::points::future::Container", [5 x i64] }
%"class.std::vector.3" = type { %"struct.std::_Vector_base.4" }
%"struct.std::_Vector_base.4" = type { %"struct.std::_Vector_base<std::pair<std::__cxx11::basic_string<char>, std::__cxx11::basic_string<char>>, std::allocator<std::pair<std::__cxx11::basic_string<char>, std::__cxx11::basic_string<char>>>>::_Vector_impl" }
%"struct.std::_Vector_base<std::pair<std::__cxx11::basic_string<char>, std::__cxx11::basic_string<char>>, std::allocator<std::pair<std::__cxx11::basic_string<char>, std::__cxx11::basic_string<char>>>>::_Vector_impl" = type { %"struct.std::_Vector_base<std::pair<std::__cxx11::basic_string<char>, std::__cxx11::basic_string<char>>, std::allocator<std::pair<std::__cxx11::basic_string<char>, std::__cxx11::basic_string<char>>>>::_Vector_impl_data" }
%"struct.std::_Vector_base<std::pair<std::__cxx11::basic_string<char>, std::__cxx11::basic_string<char>>, std::allocator<std::pair<std::__cxx11::basic_string<char>, std::__cxx11::basic_string<char>>>>::_Vector_impl_data" = type { ptr, ptr, ptr }
%"class.std::map" = type { %"class.std::_Rb_tree" }
%"class.std::_Rb_tree" = type { %"struct.std::_Rb_tree<std::__cxx11::basic_string<char>, std::pair<const std::__cxx11::basic_string<char>, unsigned long>, std::_Select1st<std::pair<const std::__cxx11::basic_string<char>, unsigned long>>, std::less<std::__cxx11::basic_string<char>>>::_Rb_tree_impl" }
%"struct.std::_Rb_tree<std::__cxx11::basic_string<char>, std::pair<const std::__cxx11::basic_string<char>, unsigned long>, std::_Select1st<std::pair<const std::__cxx11::basic_string<char>, unsigned long>>, std::less<std::__cxx11::basic_string<char>>>::_Rb_tree_impl" = type { %"struct.std::_Rb_tree_key_compare", %"struct.std::_Rb_tree_header" }
%"struct.std::_Rb_tree_key_compare" = type { %"struct.std::less" }
%"struct.std::less" = type { i8 }
%"struct.std::_Rb_tree_header" = type { %"struct.std::_Rb_tree_node_base", i64 }
%"struct.std::_Rb_tree_node_base" = type { i32, ptr, ptr, ptr }
%"class.openvdb::v11_0::MetaMap" = type { ptr, %"class.std::map.8" }
%"class.std::map.8" = type { %"class.std::_Rb_tree.9" }
%"class.std::_Rb_tree.9" = type { %"struct.std::_Rb_tree<std::__cxx11::basic_string<char>, std::pair<const std::__cxx11::basic_string<char>, std::shared_ptr<openvdb::v11_0::Metadata>>, std::_Select1st<std::pair<const std::__cxx11::basic_string<char>, std::shared_ptr<openvdb::v11_0::Metadata>>>, std::less<std::__cxx11::basic_string<char>>>::_Rb_tree_impl" }
%"struct.std::_Rb_tree<std::__cxx11::basic_string<char>, std::pair<const std::__cxx11::basic_string<char>, std::shared_ptr<openvdb::v11_0::Metadata>>, std::_Select1st<std::pair<const std::__cxx11::basic_string<char>, std::shared_ptr<openvdb::v11_0::Metadata>>>, std::less<std::__cxx11::basic_string<char>>>::_Rb_tree_impl" = type { %"struct.std::_Rb_tree_key_compare", %"struct.std::_Rb_tree_header" }
%"class.openvdb::v11_0::points::future::Container" = type { %"class.std::vector.13" }
%"class.std::vector.13" = type { %"struct.std::_Vector_base.14" }
%"struct.std::_Vector_base.14" = type { %"struct.std::_Vector_base<std::shared_ptr<openvdb::v11_0::points::future::Container::Element>, std::allocator<std::shared_ptr<openvdb::v11_0::points::future::Container::Element>>>::_Vector_impl" }
%"struct.std::_Vector_base<std::shared_ptr<openvdb::v11_0::points::future::Container::Element>, std::allocator<std::shared_ptr<openvdb::v11_0::points::future::Container::Element>>>::_Vector_impl" = type { %"struct.std::_Vector_base<std::shared_ptr<openvdb::v11_0::points::future::Container::Element>, std::allocator<std::shared_ptr<openvdb::v11_0::points::future::Container::Element>>>::_Vector_impl_data" }
%"struct.std::_Vector_base<std::shared_ptr<openvdb::v11_0::points::future::Container::Element>, std::allocator<std::shared_ptr<openvdb::v11_0::points::future::Container::Element>>>::_Vector_impl_data" = type { ptr, ptr, ptr }
%"struct.std::_Rb_tree_iterator" = type { ptr }
%"struct.std::pair.121" = type { %"struct.std::_Rb_tree_iterator", %"struct.std::_Rb_tree_iterator" }

; Function Attrs: mustprogress nounwind uwtable
define linkonce_odr void @_ZNSt23_Rb_tree_const_iteratorISt4pairIKNSt7__cxx1112basic_stringIcSt11char_traitsIcESaIcEEEmEEC2ERKSt17_Rb_tree_iteratorIS8_E(ptr noundef nonnull align 8 dereferenceable(8) %this, ptr noundef nonnull align 8 dereferenceable(8) %__it) unnamed_addr #7 comdat align 2 {
entry:
  %this.addr = alloca ptr, align 8
  %__it.addr = alloca ptr, align 8
  store ptr %this, ptr %this.addr, align 8
  store ptr %__it, ptr %__it.addr, align 8
  %this1 = load ptr, ptr %this.addr, align 8
  %_M_node = getelementptr inbounds %"struct.std::_Rb_tree_const_iterator", ptr %this1, i32 0, i32 0
  %0 = load ptr, ptr %__it.addr, align 8
  %_M_node2 = getelementptr inbounds %"struct.std::_Rb_tree_iterator", ptr %0, i32 0, i32 0
  %1 = load ptr, ptr %_M_node2, align 8
  store ptr %1, ptr %_M_node, align 8
  ret void
}

; Function Attrs: mustprogress nounwind uwtable
define linkonce_odr noundef i64 @_ZNKSt8_Rb_treeINSt7__cxx1112basic_stringIcSt11char_traitsIcESaIcEEESt4pairIKS5_mESt10_Select1stIS8_ESt4lessIS5_ESaIS8_EE4sizeEv(ptr noundef nonnull align 8 dereferenceable(48) %this) #7 comdat align 2 {
entry:
  %this.addr = alloca ptr, align 8
  store ptr %this, ptr %this.addr, align 8
  %this1 = load ptr, ptr %this.addr, align 8
  %_M_impl = getelementptr inbounds %"class.std::_Rb_tree", ptr %this1, i32 0, i32 0
  %add.ptr = getelementptr inbounds i8, ptr %_M_impl, i64 8
  %_M_node_count = getelementptr inbounds %"struct.std::_Rb_tree_header", ptr %add.ptr, i32 0, i32 1
  %0 = load i64, ptr %_M_node_count, align 8
  ret i64 %0
}

; Function Attrs: mustprogress uwtable
define linkonce_odr noundef i64 @_ZNSt8_Rb_treeINSt7__cxx1112basic_stringIcSt11char_traitsIcESaIcEEESt4pairIKS5_mESt10_Select1stIS8_ESt4lessIS5_ESaIS8_EE5eraseERS7_(ptr noundef nonnull align 8 dereferenceable(48) %this, ptr noundef nonnull align 8 dereferenceable(32) %__x) #4 comdat align 2 {
entry:
  %this.addr = alloca ptr, align 8
  %__x.addr = alloca ptr, align 8
  %__p = alloca %"struct.std::pair.121", align 8
  %__old_size = alloca i64, align 8
  %agg.tmp = alloca %"struct.std::_Rb_tree_const_iterator", align 8
  %agg.tmp3 = alloca %"struct.std::_Rb_tree_const_iterator", align 8
  store ptr %this, ptr %this.addr, align 8
  store ptr %__x, ptr %__x.addr, align 8
  %this1 = load ptr, ptr %this.addr, align 8
  %0 = load ptr, ptr %__x.addr, align 8
  %call = call { ptr, ptr } @_ZNSt8_Rb_treeINSt7__cxx1112basic_stringIcSt11char_traitsIcESaIcEEESt4pairIKS5_mESt10_Select1stIS8_ESt4lessIS5_ESaIS8_EE11equal_rangeERS7_(ptr noundef nonnull align 8 dereferenceable(48) %this1, ptr noundef nonnull align 8 dereferenceable(32) %0)
  %1 = getelementptr inbounds { ptr, ptr }, ptr %__p, i32 0, i32 0
  %2 = extractvalue { ptr, ptr } %call, 0
  store ptr %2, ptr %1, align 8
  %3 = getelementptr inbounds { ptr, ptr }, ptr %__p, i32 0, i32 1
  %4 = extractvalue { ptr, ptr } %call, 1
  store ptr %4, ptr %3, align 8
  %call2 = call noundef i64 @_ZNKSt8_Rb_treeINSt7__cxx1112basic_stringIcSt11char_traitsIcESaIcEEESt4pairIKS5_mESt10_Select1stIS8_ESt4lessIS5_ESaIS8_EE4sizeEv(ptr noundef nonnull align 8 dereferenceable(48) %this1) #3
  store i64 %call2, ptr %__old_size, align 8
  %first = getelementptr inbounds %"struct.std::pair.121", ptr %__p, i32 0, i32 0
  call void @_ZNSt23_Rb_tree_const_iteratorISt4pairIKNSt7__cxx1112basic_stringIcSt11char_traitsIcESaIcEEEmEEC2ERKSt17_Rb_tree_iteratorIS8_E(ptr noundef nonnull align 8 dereferenceable(8) %agg.tmp, ptr noundef nonnull align 8 dereferenceable(8) %first) #3
  %second = getelementptr inbounds %"struct.std::pair.121", ptr %__p, i32 0, i32 1
  call void @_ZNSt23_Rb_tree_const_iteratorISt4pairIKNSt7__cxx1112basic_stringIcSt11char_traitsIcESaIcEEEmEEC2ERKSt17_Rb_tree_iteratorIS8_E(ptr noundef nonnull align 8 dereferenceable(8) %agg.tmp3, ptr noundef nonnull align 8 dereferenceable(8) %second) #3
  %coerce.dive = getelementptr inbounds %"struct.std::_Rb_tree_const_iterator", ptr %agg.tmp, i32 0, i32 0
  %5 = load ptr, ptr %coerce.dive, align 8
  %coerce.dive4 = getelementptr inbounds %"struct.std::_Rb_tree_const_iterator", ptr %agg.tmp3, i32 0, i32 0
  %6 = load ptr, ptr %coerce.dive4, align 8
  call void @_ZNSt8_Rb_treeINSt7__cxx1112basic_stringIcSt11char_traitsIcESaIcEEESt4pairIKS5_mESt10_Select1stIS8_ESt4lessIS5_ESaIS8_EE12_M_erase_auxESt23_Rb_tree_const_iteratorIS8_ESG_(ptr noundef nonnull align 8 dereferenceable(48) %this1, ptr %5, ptr %6)
  %7 = load i64, ptr %__old_size, align 8
  %call5 = call noundef i64 @_ZNKSt8_Rb_treeINSt7__cxx1112basic_stringIcSt11char_traitsIcESaIcEEESt4pairIKS5_mESt10_Select1stIS8_ESt4lessIS5_ESaIS8_EE4sizeEv(ptr noundef nonnull align 8 dereferenceable(48) %this1) #3
  %sub = sub i64 %7, %call5
  ret i64 %sub
}

; Function Attrs: mustprogress uwtable
define linkonce_odr noundef i64 @_ZNSt3mapINSt7__cxx1112basic_stringIcSt11char_traitsIcESaIcEEEmSt4lessIS5_ESaISt4pairIKS5_mEEE5eraseERS9_(ptr noundef nonnull align 8 dereferenceable(48) %this, ptr noundef nonnull align 8 dereferenceable(32) %__x) #4 comdat align 2 {
entry:
  %this.addr = alloca ptr, align 8
  %__x.addr = alloca ptr, align 8
  store ptr %this, ptr %this.addr, align 8
  store ptr %__x, ptr %__x.addr, align 8
  %this1 = load ptr, ptr %this.addr, align 8
  %_M_t = getelementptr inbounds %"class.std::map", ptr %this1, i32 0, i32 0
  %0 = load ptr, ptr %__x.addr, align 8
  %call = call noundef i64 @_ZNSt8_Rb_treeINSt7__cxx1112basic_stringIcSt11char_traitsIcESaIcEEESt4pairIKS5_mESt10_Select1stIS8_ESt4lessIS5_ESaIS8_EE5eraseERS7_(ptr noundef nonnull align 8 dereferenceable(48) %_M_t, ptr noundef nonnull align 8 dereferenceable(32) %0)
  ret i64 %call
}

; Function Attrs: mustprogress uwtable
define void @_ZN7openvdb5v11_06points12AttributeSet10Descriptor9dropGroupERKNSt7__cxx1112basic_stringIcSt11char_traitsIcESaIcEEE(ptr noundef nonnull align 8 dereferenceable(240) %this, ptr noundef nonnull align 8 dereferenceable(32) %group) #4 align 2 {
entry:
  %this.addr = alloca ptr, align 8
  %group.addr = alloca ptr, align 8
  store ptr %this, ptr %this.addr, align 8
  store ptr %group, ptr %group.addr, align 8
  %this1 = load ptr, ptr %this.addr, align 8
  %mGroupMap = getelementptr inbounds %"class.openvdb::v11_0::points::AttributeSet::Descriptor", ptr %this1, i32 0, i32 2
  %0 = load ptr, ptr %group.addr, align 8
  %call = call noundef i64 @_ZNSt3mapINSt7__cxx1112basic_stringIcSt11char_traitsIcESaIcEEEmSt4lessIS5_ESaISt4pairIKS5_mEEE5eraseERS9_(ptr noundef nonnull align 8 dereferenceable(48) %mGroupMap, ptr noundef nonnull align 8 dereferenceable(32) %0)
  ret void
}