; Function Attrs: mustprogress uwtable
define void @_ZN7openvdb5v11_06points12AttributeSet10Descriptor9dropGroupERKNSt7__cxx1112basic_stringIcSt11char_traitsIcESaIcEEE(ptr noundef nonnull align 8 dereferenceable(240) %this, ptr noundef nonnull align 8 dereferenceable(32) %group) local_unnamed_addr #3 align 2 {
entry:
  %mGroupMap = getelementptr inbounds i8, ptr %this, i64 72
  %call.i.i = tail call { ptr, ptr } @_ZNSt8_Rb_treeINSt7__cxx1112basic_stringIcSt11char_traitsIcESaIcEEESt4pairIKS5_mESt10_Select1stIS8_ESt4lessIS5_ESaIS8_EE11equal_rangeERS7_(ptr noundef nonnull align 8 dereferenceable(48) %mGroupMap, ptr noundef nonnull align 8 dereferenceable(32) %group)
  %0 = extractvalue { ptr, ptr } %call.i.i, 0
  %1 = extractvalue { ptr, ptr } %call.i.i, 1
  tail call void @_ZNSt8_Rb_treeINSt7__cxx1112basic_stringIcSt11char_traitsIcESaIcEEESt4pairIKS5_mESt10_Select1stIS8_ESt4lessIS5_ESaIS8_EE12_M_erase_auxESt23_Rb_tree_const_iteratorIS8_ESG_(ptr noundef nonnull align 8 dereferenceable(48) %mGroupMap, ptr %0, ptr %1)
  ret void
}